target datalayout = "e-m:e-p270:32:32-p271:32:32-p272:64:64-i64:64-i128:128-f80:128-n8:16:32:64-S128"
target triple = "x86_64-pc-linux-gnu"

%class.QString = type { ptr }
%class.QObject = type { ptr, %class.QScopedPointer }
%class.QScopedPointer = type { ptr }
%class.QualityMapperDialog = type { %class.QDockWidget, %"class.Ui::QualityMapperDialogClass", ptr, ptr, %class.QGraphicsScene, [3 x ptr], double, i8, i8, %class.QList, i32, ptr, ptr, ptr, %class.QGraphicsScene, ptr, [3 x %class.QList.22], ptr, %class.QString, %class.QList, %class.QList, i8, %class.QList.25, %class.QList, ptr, ptr }
%class.QDockWidget = type { %class.QWidget }
%class.QWidget = type { %class.QObject, %class.QPaintDevice, ptr }
%class.QPaintDevice = type { ptr, i16, ptr }
%"class.Ui::QualityMapperDialogClass" = type { %class.Ui_QualityMapperDialogClass }
%class.Ui_QualityMapperDialogClass = type { ptr, ptr, ptr, ptr, ptr, ptr, ptr, ptr, ptr, ptr, ptr, ptr, ptr, ptr, ptr, ptr, ptr, ptr, ptr, ptr, ptr, ptr, ptr, ptr, ptr, ptr, ptr, ptr, ptr, ptr, ptr, ptr, ptr, ptr, ptr, ptr, ptr, ptr, ptr, ptr, ptr, ptr, ptr, ptr, ptr, ptr, ptr, ptr, ptr, ptr, ptr, ptr, ptr, ptr, ptr, ptr, ptr, ptr, ptr, ptr, ptr, ptr, ptr, ptr, ptr, ptr, ptr, ptr }
%class.QGraphicsScene = type { %class.QObject }
%class.QList.22 = type { %union.anon.24 }
%union.anon.24 = type { %struct.QListData }
%struct.QListData = type { ptr }
%class.QList.25 = type { %union.anon.27 }
%union.anon.27 = type { %struct.QListData }
%class.QList = type { %union.anon }
%union.anon = type { %struct.QListData }
%struct.EQUALIZER_INFO = type { float, float, float, float }

; Function Attrs: mustprogress nounwind uwtable
define linkonce_odr noundef i32 @_ZNSt14numeric_limitsIiE3maxEv() #4 comdat align 2 {
  ret i32 2147483647
}

; Function Attrs: mustprogress nounwind uwtable
define linkonce_odr noundef i32 @_ZNSt14numeric_limitsIiE3minEv() #4 comdat align 2 {
  ret i32 -2147483648
}

; Function Attrs: mustprogress uwtable
define void @_ZN19QualityMapperDialog22setEqualizerParametersE14EQUALIZER_INFO(ptr noundef nonnull align 8 dereferenceable(824) %0, <2 x float> %1, <2 x float> %2) #15 align 2 {
  %4 = alloca %struct.EQUALIZER_INFO, align 4
  %5 = alloca ptr, align 8
  %6 = getelementptr inbounds { <2 x float>, <2 x float> }, ptr %4, i32 0, i32 0
  store <2 x float> %1, ptr %6, align 4
  %7 = getelementptr inbounds { <2 x float>, <2 x float> }, ptr %4, i32 0, i32 1
  store <2 x float> %2, ptr %7, align 4
  store ptr %0, ptr %5, align 8
  %8 = load ptr, ptr %5, align 8
  %9 = getelementptr inbounds %class.QualityMapperDialog, ptr %8, i32 0, i32 1
  %10 = getelementptr inbounds %class.Ui_QualityMapperDialogClass, ptr %9, i32 0, i32 61
  %11 = load ptr, ptr %10, align 8
  %12 = getelementptr inbounds %struct.EQUALIZER_INFO, ptr %4, i32 0, i32 3
  %13 = load float, ptr %12, align 4
  %14 = fptosi float %13 to i32
  call void @_ZN15QAbstractSlider17setSliderPositionEi(ptr noundef nonnull align 8 dereferenceable(48) %11, i32 noundef %14)
  %15 = getelementptr inbounds %class.QualityMapperDialog, ptr %8, i32 0, i32 1
  %16 = getelementptr inbounds %class.Ui_QualityMapperDialogClass, ptr %15, i32 0, i32 38
  %17 = load ptr, ptr %16, align 8
  %18 = getelementptr inbounds %struct.EQUALIZER_INFO, ptr %4, i32 0, i32 0
  %19 = load float, ptr %18, align 4
  %20 = fpext float %19 to double
  call void @_ZN14QDoubleSpinBox8setValueEd(ptr noundef nonnull align 8 dereferenceable(48) %17, double noundef %20)
  %21 = getelementptr inbounds %class.QualityMapperDialog, ptr %8, i32 0, i32 1
  %22 = getelementptr inbounds %class.Ui_QualityMapperDialogClass, ptr %21, i32 0, i32 38
  %23 = load ptr, ptr %22, align 8
  %24 = call noundef i32 @_ZNSt14numeric_limitsIiE3minEv() #3
  %25 = sitofp i32 %24 to double
  %26 = getelementptr inbounds %struct.EQUALIZER_INFO, ptr %4, i32 0, i32 2
  %27 = load float, ptr %26, align 4
  %28 = fpext float %27 to double
  call void @_ZN14QDoubleSpinBox8setRangeEdd(ptr noundef nonnull align 8 dereferenceable(48) %23, double noundef %25, double noundef %28)
  %29 = getelementptr inbounds %class.QualityMapperDialog, ptr %8, i32 0, i32 1
  %30 = getelementptr inbounds %class.Ui_QualityMapperDialogClass, ptr %29, i32 0, i32 46
  %31 = load ptr, ptr %30, align 8
  %32 = getelementptr inbounds %struct.EQUALIZER_INFO, ptr %4, i32 0, i32 2
  %33 = load float, ptr %32, align 4
  %34 = fpext float %33 to double
  call void @_ZN14QDoubleSpinBox8setValueEd(ptr noundef nonnull align 8 dereferenceable(48) %31, double noundef %34)
  %35 = getelementptr inbounds %class.QualityMapperDialog, ptr %8, i32 0, i32 1
  %36 = getelementptr inbounds %class.Ui_QualityMapperDialogClass, ptr %35, i32 0, i32 46
  %37 = load ptr, ptr %36, align 8
  %38 = getelementptr inbounds %struct.EQUALIZER_INFO, ptr %4, i32 0, i32 0
  %39 = load float, ptr %38, align 4
  %40 = fpext float %39 to double
  %41 = call noundef i32 @_ZNSt14numeric_limitsIiE3maxEv() #3
  %42 = sitofp i32 %41 to double
  call void @_ZN14QDoubleSpinBox8setRangeEdd(ptr noundef nonnull align 8 dereferenceable(48) %37, double noundef %40, double noundef %42)
  %43 = getelementptr inbounds %class.QualityMapperDialog, ptr %8, i32 0, i32 1
  %44 = getelementptr inbounds %class.Ui_QualityMapperDialogClass, ptr %43, i32 0, i32 41
  %45 = load ptr, ptr %44, align 8
  %46 = getelementptr inbounds %class.QualityMapperDialog, ptr %8, i32 0, i32 1
  %47 = getelementptr inbounds %class.Ui_QualityMapperDialogClass, ptr %46, i32 0, i32 46
  %48 = load ptr, ptr %47, align 8
  %49 = call noundef double @_ZNK14QDoubleSpinBox5valueEv(ptr noundef nonnull align 8 dereferenceable(48) %48)
  %50 = getelementptr inbounds %class.QualityMapperDialog, ptr %8, i32 0, i32 1
  %51 = getelementptr inbounds %class.Ui_QualityMapperDialogClass, ptr %50, i32 0, i32 38
  %52 = load ptr, ptr %51, align 8
  %53 = call noundef double @_ZNK14QDoubleSpinBox5valueEv(ptr noundef nonnull align 8 dereferenceable(48) %52)
  %54 = fsub double %49, %53
  %55 = getelementptr inbounds %struct.EQUALIZER_INFO, ptr %4, i32 0, i32 1
  %56 = load float, ptr %55, align 4
  %57 = fpext float %56 to double
  %58 = getelementptr inbounds %class.QualityMapperDialog, ptr %8, i32 0, i32 1
  %59 = getelementptr inbounds %class.Ui_QualityMapperDialogClass, ptr %58, i32 0, i32 38
  %60 = load ptr, ptr %59, align 8
  %61 = call noundef double @_ZNK14QDoubleSpinBox5valueEv(ptr noundef nonnull align 8 dereferenceable(48) %60)
  %62 = call double @llvm.fmuladd.f64(double %54, double %57, double %61)
  call void @_ZN14QDoubleSpinBox8setValueEd(ptr noundef nonnull align 8 dereferenceable(48) %45, double noundef %62)
  %63 = getelementptr inbounds %class.QualityMapperDialog, ptr %8, i32 0, i32 1
  %64 = getelementptr inbounds %class.Ui_QualityMapperDialogClass, ptr %63, i32 0, i32 41
  %65 = load ptr, ptr %64, align 8
  %66 = getelementptr inbounds %class.QualityMapperDialog, ptr %8, i32 0, i32 1
  %67 = getelementptr inbounds %class.Ui_QualityMapperDialogClass, ptr %66, i32 0, i32 38
  %68 = load ptr, ptr %67, align 8
  %69 = call noundef double @_ZNK14QDoubleSpinBox5valueEv(ptr noundef nonnull align 8 dereferenceable(48) %68)
  %70 = getelementptr inbounds %class.QualityMapperDialog, ptr %8, i32 0, i32 1
  %71 = getelementptr inbounds %class.Ui_QualityMapperDialogClass, ptr %70, i32 0, i32 46
  %72 = load ptr, ptr %71, align 8
  %73 = call noundef double @_ZNK14QDoubleSpinBox5valueEv(ptr noundef nonnull align 8 dereferenceable(48) %72)
  call void @_ZN14QDoubleSpinBox8setRangeEdd(ptr noundef nonnull align 8 dereferenceable(48) %65, double noundef %69, double noundef %73)
  call void @_ZN19QualityMapperDialog19drawGammaCorrectionEv(ptr noundef nonnull align 8 dereferenceable(824) %8)
  call void @_ZN19QualityMapperDialog22drawTransferFunctionBGEv(ptr noundef nonnull align 8 dereferenceable(824) %8)
  %74 = getelementptr inbounds %class.QualityMapperDialog, ptr %8, i32 0, i32 1
  %75 = getelementptr inbounds %class.Ui_QualityMapperDialogClass, ptr %74, i32 0, i32 65
  %76 = load ptr, ptr %75, align 8
  %77 = call noundef zeroext i1 @_ZNK15QAbstractButton9isCheckedEv(ptr noundef nonnull align 8 dereferenceable(48) %76)
  br i1 %77, label %78, label %79

78:                                               ; preds = %3
  call void @_ZN19QualityMapperDialog22on_applyButton_clickedEv(ptr noundef nonnull align 8 dereferenceable(824) %8)
  br label %79

79:                                               ; preds = %78, %3
  ret void
}