; Function Attrs: mustprogress uwtable
define void @_ZN19QualityMapperDialog22setEqualizerParametersE14EQUALIZER_INFO(ptr noundef nonnull align 8 dereferenceable(824) %0, <2 x float> %1, <2 x float> %2) local_unnamed_addr #14 align 2 {
  %4 = getelementptr inbounds i8, ptr %0, i64 536
  %5 = load ptr, ptr %4, align 8
  %.sroa.4.12.vec.extract = extractelement <2 x float> %2, i64 1
  %6 = fptosi float %.sroa.4.12.vec.extract to i32
  tail call void @_ZN15QAbstractSlider17setSliderPositionEi(ptr noundef nonnull align 8 dereferenceable(48) %5, i32 noundef %6)
  %7 = getelementptr inbounds i8, ptr %0, i64 352
  %8 = load ptr, ptr %7, align 8
  %.sroa.0.0.vec.extract = extractelement <2 x float> %1, i64 0
  %9 = fpext float %.sroa.0.0.vec.extract to double
  tail call void @_ZN14QDoubleSpinBox8setValueEd(ptr noundef nonnull align 8 dereferenceable(48) %8, double noundef %9)
  %10 = load ptr, ptr %7, align 8
  %.sroa.4.8.vec.extract = extractelement <2 x float> %2, i64 0
  %11 = fpext float %.sroa.4.8.vec.extract to double
  tail call void @_ZN14QDoubleSpinBox8setRangeEdd(ptr noundef nonnull align 8 dereferenceable(48) %10, double noundef 0xC1E0000000000000, double noundef %11)
  %12 = getelementptr inbounds i8, ptr %0, i64 416
  %13 = load ptr, ptr %12, align 8
  tail call void @_ZN14QDoubleSpinBox8setValueEd(ptr noundef nonnull align 8 dereferenceable(48) %13, double noundef %11)
  %14 = load ptr, ptr %12, align 8
  tail call void @_ZN14QDoubleSpinBox8setRangeEdd(ptr noundef nonnull align 8 dereferenceable(48) %14, double noundef %9, double noundef 0x41DFFFFFFFC00000)
  %15 = getelementptr inbounds i8, ptr %0, i64 376
  %16 = load ptr, ptr %15, align 8
  %17 = load ptr, ptr %12, align 8
  %18 = tail call noundef double @_ZNK14QDoubleSpinBox5valueEv(ptr noundef nonnull align 8 dereferenceable(48) %17)
  %19 = load ptr, ptr %7, align 8
  %20 = tail call noundef double @_ZNK14QDoubleSpinBox5valueEv(ptr noundef nonnull align 8 dereferenceable(48) %19)
  %21 = fsub double %18, %20
  %.sroa.0.4.vec.extract = extractelement <2 x float> %1, i64 1
  %22 = fpext float %.sroa.0.4.vec.extract to double
  %23 = load ptr, ptr %7, align 8
  %24 = tail call noundef double @_ZNK14QDoubleSpinBox5valueEv(ptr noundef nonnull align 8 dereferenceable(48) %23)
  %25 = tail call double @llvm.fmuladd.f64(double %21, double %22, double %24)
  tail call void @_ZN14QDoubleSpinBox8setValueEd(ptr noundef nonnull align 8 dereferenceable(48) %16, double noundef %25)
  %26 = load ptr, ptr %15, align 8
  %27 = load ptr, ptr %7, align 8
  %28 = tail call noundef double @_ZNK14QDoubleSpinBox5valueEv(ptr noundef nonnull align 8 dereferenceable(48) %27)
  %29 = load ptr, ptr %12, align 8
  %30 = tail call noundef double @_ZNK14QDoubleSpinBox5valueEv(ptr noundef nonnull align 8 dereferenceable(48) %29)
  tail call void @_ZN14QDoubleSpinBox8setRangeEdd(ptr noundef nonnull align 8 dereferenceable(48) %26, double noundef %28, double noundef %30)
  tail call void @_ZN19QualityMapperDialog19drawGammaCorrectionEv(ptr noundef nonnull align 8 dereferenceable(824) %0)
  tail call void @_ZN19QualityMapperDialog22drawTransferFunctionBGEv(ptr noundef nonnull align 8 dereferenceable(824) %0)
  %31 = getelementptr inbounds i8, ptr %0, i64 568
  %32 = load ptr, ptr %31, align 8
  %33 = tail call noundef zeroext i1 @_ZNK15QAbstractButton9isCheckedEv(ptr noundef nonnull align 8 dereferenceable(48) %32)
  br i1 %33, label %34, label %35

34:                                               ; preds = %3
  tail call void @_ZN19QualityMapperDialog22on_applyButton_clickedEv(ptr noundef nonnull align 8 dereferenceable(824) %0)
  br label %35

35:                                               ; preds = %34, %3
  ret void
}